target datalayout = "e-m:e-p270:32:32-p271:32:32-p272:64:64-i64:64-i128:128-f80:128-n8:16:32:64-S128"
target triple = "x86_64-pc-linux-gnu"

%struct.DdManager = type { %struct.DdNode, ptr, ptr, ptr, ptr, ptr, ptr, ptr, i32, i32, double, double, double, i32, i32, i32, i32, i32, i32, ptr, ptr, %struct.DdSubtable, i32, i32, i32, i32, i32, i32, i32, double, i32, i32, i32, ptr, i64, double, i32, ptr, ptr, ptr, ptr, ptr, ptr, ptr, i32, ptr, ptr, ptr, ptr, ptr, ptr, i32, i32, i32, double, i32, i32, i32, i32, double, double, i32, i32, i32, i32, i32, i32, i32, i32, i32, ptr, ptr, i32, i32, i32, i32, i32, i32, ptr, ptr, ptr, ptr, ptr, ptr, ptr, ptr, i32, i64, i64, i64, i32, i64, i64, double, double, double, double, double, double, i32, ptr, ptr, i64 }
%struct.DdNode = type { i32, i32, ptr, %union.anon, i64 }
%union.anon = type { %struct.DdChildren }
%struct.DdChildren = type { ptr, ptr }
%struct.DdSubtable = type { ptr, i32, i32, i32, i32, i32, i32, i32, i32, i32, i32, i32 }

; Function Attrs: nounwind uwtable
define double @Cudd_ExpectedUsedSlots(ptr noundef %0) #0 {
  %2 = alloca ptr, align 8
  %3 = alloca i32, align 4
  %4 = alloca i32, align 4
  %5 = alloca ptr, align 8
  %6 = alloca double, align 8
  store ptr %0, ptr %2, align 8
  %7 = load ptr, ptr %2, align 8
  %8 = getelementptr inbounds %struct.DdManager, ptr %7, i32 0, i32 15
  %9 = load i32, ptr %8, align 8
  store i32 %9, ptr %4, align 4
  store double 0.000000e+00, ptr %6, align 8
  store i32 0, ptr %3, align 4
  br label %10

10:                                               ; preds = %38, %1
  %11 = load i32, ptr %3, align 4
  %12 = load i32, ptr %4, align 4
  %13 = icmp slt i32 %11, %12
  br i1 %13, label %14, label %41

14:                                               ; preds = %10
  %15 = load ptr, ptr %2, align 8
  %16 = getelementptr inbounds %struct.DdManager, ptr %15, i32 0, i32 19
  %17 = load ptr, ptr %16, align 8
  %18 = load i32, ptr %3, align 4
  %19 = sext i32 %18 to i64
  %20 = getelementptr inbounds %struct.DdSubtable, ptr %17, i64 %19
  store ptr %20, ptr %5, align 8
  %21 = load ptr, ptr %5, align 8
  %22 = getelementptr inbounds %struct.DdSubtable, ptr %21, i32 0, i32 2
  %23 = load i32, ptr %22, align 4
  %24 = uitofp i32 %23 to double
  %25 = load ptr, ptr %5, align 8
  %26 = getelementptr inbounds %struct.DdSubtable, ptr %25, i32 0, i32 3
  %27 = load i32, ptr %26, align 8
  %28 = uitofp i32 %27 to double
  %29 = fneg double %28
  %30 = load ptr, ptr %5, align 8
  %31 = getelementptr inbounds %struct.DdSubtable, ptr %30, i32 0, i32 2
  %32 = load i32, ptr %31, align 4
  %33 = uitofp i32 %32 to double
  %34 = fdiv double %29, %33
  %35 = call double @exp(double noundef %34) #8
  %36 = load double, ptr %6, align 8
  %37 = call double @llvm.fmuladd.f64(double %24, double %35, double %36)
  store double %37, ptr %6, align 8
  br label %38

38:                                               ; preds = %14
  %39 = load i32, ptr %3, align 4
  %40 = add nsw i32 %39, 1
  store i32 %40, ptr %3, align 4
  br label %10, !llvm.loop !27

41:                                               ; preds = %10
  %42 = load ptr, ptr %2, align 8
  %43 = getelementptr inbounds %struct.DdManager, ptr %42, i32 0, i32 16
  %44 = load i32, ptr %43, align 4
  store i32 %44, ptr %4, align 4
  store i32 0, ptr %3, align 4
  br label %45

45:                                               ; preds = %73, %41
  %46 = load i32, ptr %3, align 4
  %47 = load i32, ptr %4, align 4
  %48 = icmp slt i32 %46, %47
  br i1 %48, label %49, label %76

49:                                               ; preds = %45
  %50 = load ptr, ptr %2, align 8
  %51 = getelementptr inbounds %struct.DdManager, ptr %50, i32 0, i32 20
  %52 = load ptr, ptr %51, align 8
  %53 = load i32, ptr %3, align 4
  %54 = sext i32 %53 to i64
  %55 = getelementptr inbounds %struct.DdSubtable, ptr %52, i64 %54
  store ptr %55, ptr %5, align 8
  %56 = load ptr, ptr %5, align 8
  %57 = getelementptr inbounds %struct.DdSubtable, ptr %56, i32 0, i32 2
  %58 = load i32, ptr %57, align 4
  %59 = uitofp i32 %58 to double
  %60 = load ptr, ptr %5, align 8
  %61 = getelementptr inbounds %struct.DdSubtable, ptr %60, i32 0, i32 3
  %62 = load i32, ptr %61, align 8
  %63 = uitofp i32 %62 to double
  %64 = fneg double %63
  %65 = load ptr, ptr %5, align 8
  %66 = getelementptr inbounds %struct.DdSubtable, ptr %65, i32 0, i32 2
  %67 = load i32, ptr %66, align 4
  %68 = uitofp i32 %67 to double
  %69 = fdiv double %64, %68
  %70 = call double @exp(double noundef %69) #8
  %71 = load double, ptr %6, align 8
  %72 = call double @llvm.fmuladd.f64(double %59, double %70, double %71)
  store double %72, ptr %6, align 8
  br label %73

73:                                               ; preds = %49
  %74 = load i32, ptr %3, align 4
  %75 = add nsw i32 %74, 1
  store i32 %75, ptr %3, align 4
  br label %45, !llvm.loop !28

76:                                               ; preds = %45
  %77 = load ptr, ptr %2, align 8
  %78 = getelementptr inbounds %struct.DdManager, ptr %77, i32 0, i32 21
  store ptr %78, ptr %5, align 8
  %79 = load ptr, ptr %5, align 8
  %80 = getelementptr inbounds %struct.DdSubtable, ptr %79, i32 0, i32 2
  %81 = load i32, ptr %80, align 4
  %82 = uitofp i32 %81 to double
  %83 = load ptr, ptr %5, align 8
  %84 = getelementptr inbounds %struct.DdSubtable, ptr %83, i32 0, i32 3
  %85 = load i32, ptr %84, align 8
  %86 = uitofp i32 %85 to double
  %87 = fneg double %86
  %88 = load ptr, ptr %5, align 8
  %89 = getelementptr inbounds %struct.DdSubtable, ptr %88, i32 0, i32 2
  %90 = load i32, ptr %89, align 4
  %91 = uitofp i32 %90 to double
  %92 = fdiv double %87, %91
  %93 = call double @exp(double noundef %92) #8
  %94 = load double, ptr %6, align 8
  %95 = call double @llvm.fmuladd.f64(double %82, double %93, double %94)
  store double %95, ptr %6, align 8
  %96 = load double, ptr %6, align 8
  %97 = load ptr, ptr %2, align 8
  %98 = getelementptr inbounds %struct.DdManager, ptr %97, i32 0, i32 22
  %99 = load i32, ptr %98, align 8
  %100 = uitofp i32 %99 to double
  %101 = fdiv double %96, %100
  %102 = fsub double 1.000000e+00, %101
  ret double %102
}