; Function Attrs: nofree nounwind memory(readwrite, inaccessiblemem: write) uwtable
define double @Cudd_ExpectedUsedSlots(ptr noundef readonly captures(none) %0) local_unnamed_addr #11 {
  %2 = getelementptr inbounds nuw i8, ptr %0, i64 136
  %3 = load i32, ptr %2, align 8
  %4 = icmp sgt i32 %3, 0
  br i1 %4, label %.lr.ph, label %._crit_edge

.lr.ph:                                           ; preds = %1
  %5 = getelementptr inbounds nuw i8, ptr %0, i64 152
  %wide.trip.count = zext nneg i32 %3 to i64
  br label %6

6:                                                ; preds = %.lr.ph, %6
  %indvars.iv = phi i64 [ 0, %.lr.ph ], [ %indvars.iv.next, %6 ]
  %.029 = phi double [ 0.000000e+00, %.lr.ph ], [ %18, %6 ]
  %7 = load ptr, ptr %5, align 8
  %8 = getelementptr inbounds nuw %struct.DdSubtable, ptr %7, i64 %indvars.iv
  %9 = getelementptr inbounds nuw i8, ptr %8, i64 12
  %10 = load i32, ptr %9, align 4
  %11 = uitofp i32 %10 to double
  %12 = getelementptr inbounds nuw i8, ptr %8, i64 16
  %13 = load i32, ptr %12, align 8
  %14 = uitofp i32 %13 to double
  %15 = fneg double %14
  %16 = fdiv double %15, %11
  %17 = tail call double @exp(double noundef %16) #20
  %18 = tail call double @llvm.fmuladd.f64(double %11, double %17, double %.029)
  %indvars.iv.next = add nuw nsw i64 %indvars.iv, 1
  %exitcond.not = icmp eq i64 %indvars.iv.next, %wide.trip.count
  br i1 %exitcond.not, label %._crit_edge, label %6, !llvm.loop !26

._crit_edge:                                      ; preds = %6, %1
  %.0.lcssa = phi double [ 0.000000e+00, %1 ], [ %18, %6 ]
  %19 = getelementptr inbounds nuw i8, ptr %0, i64 140
  %20 = load i32, ptr %19, align 4
  %21 = icmp sgt i32 %20, 0
  br i1 %21, label %.lr.ph33, label %._crit_edge34

.lr.ph33:                                         ; preds = %._crit_edge
  %22 = getelementptr inbounds nuw i8, ptr %0, i64 160
  %wide.trip.count41 = zext nneg i32 %20 to i64
  br label %23

23:                                               ; preds = %.lr.ph33, %23
  %indvars.iv38 = phi i64 [ 0, %.lr.ph33 ], [ %indvars.iv.next39, %23 ]
  %.131 = phi double [ %.0.lcssa, %.lr.ph33 ], [ %35, %23 ]
  %24 = load ptr, ptr %22, align 8
  %25 = getelementptr inbounds nuw %struct.DdSubtable, ptr %24, i64 %indvars.iv38
  %26 = getelementptr inbounds nuw i8, ptr %25, i64 12
  %27 = load i32, ptr %26, align 4
  %28 = uitofp i32 %27 to double
  %29 = getelementptr inbounds nuw i8, ptr %25, i64 16
  %30 = load i32, ptr %29, align 8
  %31 = uitofp i32 %30 to double
  %32 = fneg double %31
  %33 = fdiv double %32, %28
  %34 = tail call double @exp(double noundef %33) #20
  %35 = tail call double @llvm.fmuladd.f64(double %28, double %34, double %.131)
  %indvars.iv.next39 = add nuw nsw i64 %indvars.iv38, 1
  %exitcond42.not = icmp eq i64 %indvars.iv.next39, %wide.trip.count41
  br i1 %exitcond42.not, label %._crit_edge34, label %23, !llvm.loop !27

._crit_edge34:                                    ; preds = %23, %._crit_edge
  %.1.lcssa = phi double [ %.0.lcssa, %._crit_edge ], [ %35, %23 ]
  %36 = getelementptr inbounds nuw i8, ptr %0, i64 180
  %37 = load i32, ptr %36, align 4
  %38 = uitofp i32 %37 to double
  %39 = getelementptr inbounds nuw i8, ptr %0, i64 184
  %40 = load i32, ptr %39, align 8
  %41 = uitofp i32 %40 to double
  %42 = fneg double %41
  %43 = fdiv double %42, %38
  %44 = tail call double @exp(double noundef %43) #20
  %45 = tail call double @llvm.fmuladd.f64(double %38, double %44, double %.1.lcssa)
  %46 = getelementptr inbounds nuw i8, ptr %0, i64 224
  %47 = load i32, ptr %46, align 8
  %48 = uitofp i32 %47 to double
  %49 = fdiv double %45, %48
  %50 = fsub double 1.000000e+00, %49
  ret double %50
}